target datalayout = "e-m:e-p270:32:32-p271:32:32-p272:64:64-i64:64-i128:128-f80:128-n8:16:32:64-S128"
target triple = "x86_64-pc-linux-gnu"

%"struct.faiss::SimulatedAnnealingOptimizer" = type { ptr, %"struct.faiss::SimulatedAnnealingParameters.base", ptr, i32, ptr, ptr, double }
%"struct.faiss::SimulatedAnnealingParameters.base" = type <{ double, double, i32, i32, i32, i32, i8, i8 }>
%"struct.faiss::SimulatedAnnealingParameters" = type <{ double, double, i32, i32, i32, i32, i8, i8, [6 x i8] }>

@.str.4 = private unnamed_addr constant [2 x i8] c"\0A\00", align 1
@.str.8 = private unnamed_addr constant [60 x i8] c"      iteration %d cost %g temp %g n_swap %d (%d hot)     \0D\00", align 1
@stdout = external global ptr, align 8
@.str.9 = private unnamed_addr constant [16 x i8] c"%d %g %g %d %d\0A\00", align 1

; Function Attrs: inlinehint mustprogress nounwind uwtable
define linkonce_odr void @_ZSt4swapIiENSt9enable_ifIXsr6__and_ISt6__not_ISt15__is_tuple_likeIT_EESt21is_move_constructibleIS3_ESt18is_move_assignableIS3_EEE5valueEvE4typeERS3_SC_(ptr noundef nonnull align 4 dereferenceable(4) %0, ptr noundef nonnull align 4 dereferenceable(4) %1) #4 comdat {
  %3 = alloca ptr, align 8
  %4 = alloca ptr, align 8
  %5 = alloca i32, align 4
  store ptr %0, ptr %3, align 8, !tbaa !9
  store ptr %1, ptr %4, align 8, !tbaa !9
  call void @llvm.lifetime.start.p0(i64 4, ptr %5) #16
  %6 = load ptr, ptr %3, align 8, !tbaa !9
  %7 = load i32, ptr %6, align 4, !tbaa !11
  store i32 %7, ptr %5, align 4, !tbaa !11
  %8 = load ptr, ptr %4, align 8, !tbaa !9
  %9 = load i32, ptr %8, align 4, !tbaa !11
  %10 = load ptr, ptr %3, align 8, !tbaa !9
  store i32 %9, ptr %10, align 4, !tbaa !11
  %11 = load i32, ptr %5, align 4, !tbaa !11
  %12 = load ptr, ptr %4, align 8, !tbaa !9
  store i32 %11, ptr %12, align 4, !tbaa !11
  call void @llvm.lifetime.end.p0(i64 4, ptr %5) #16
  ret void
}

; Function Attrs: mustprogress uwtable
define noundef double @_ZN5faiss27SimulatedAnnealingOptimizer8optimizeEPi(ptr noundef nonnull align 8 dereferenceable(88) %0, ptr noundef %1) #0 align 2 {
  %3 = alloca ptr, align 8
  %4 = alloca ptr, align 8
  %5 = alloca double, align 8
  %6 = alloca i32, align 4
  %7 = alloca double, align 8
  %8 = alloca i32, align 4
  %9 = alloca i32, align 4
  %10 = alloca i32, align 4
  %11 = alloca i32, align 4
  %12 = alloca i32, align 4
  %13 = alloca double, align 8
  store ptr %0, ptr %3, align 8, !tbaa !35
  store ptr %1, ptr %4, align 8, !tbaa !9
  %14 = load ptr, ptr %3, align 8
  call void @llvm.lifetime.start.p0(i64 8, ptr %5) #16
  %15 = getelementptr inbounds nuw %"struct.faiss::SimulatedAnnealingOptimizer", ptr %14, i32 0, i32 2
  %16 = load ptr, ptr %15, align 8, !tbaa !66
  %17 = load ptr, ptr %4, align 8, !tbaa !9
  %18 = load ptr, ptr %16, align 8, !tbaa !13
  %19 = getelementptr inbounds ptr, ptr %18, i64 0
  %20 = load ptr, ptr %19, align 8
  %21 = call noundef double %20(ptr noundef nonnull align 8 dereferenceable(12) %16, ptr noundef %17)
  %22 = getelementptr inbounds nuw %"struct.faiss::SimulatedAnnealingOptimizer", ptr %14, i32 0, i32 6
  store double %21, ptr %22, align 8, !tbaa !103
  store double %21, ptr %5, align 8, !tbaa !15
  call void @llvm.lifetime.start.p0(i64 4, ptr %6) #16
  store i32 0, ptr %6, align 4, !tbaa !11
  br label %23

23:                                               ; preds = %30, %2
  %24 = getelementptr inbounds nuw %"struct.faiss::SimulatedAnnealingOptimizer", ptr %14, i32 0, i32 3
  %25 = load i32, ptr %24, align 8, !tbaa !71
  %26 = load i32, ptr %6, align 4, !tbaa !11
  %27 = shl i32 1, %26
  %28 = icmp sle i32 %25, %27
  %29 = xor i1 %28, true
  br i1 %29, label %30, label %33

30:                                               ; preds = %23
  %31 = load i32, ptr %6, align 4, !tbaa !11
  %32 = add nsw i32 %31, 1
  store i32 %32, ptr %6, align 4, !tbaa !11
  br label %23, !llvm.loop !104

33:                                               ; preds = %23
  call void @llvm.lifetime.start.p0(i64 8, ptr %7) #16
  %34 = getelementptr inbounds i8, ptr %14, i64 8
  %35 = getelementptr inbounds nuw %"struct.faiss::SimulatedAnnealingParameters", ptr %34, i32 0, i32 0
  %36 = load double, ptr %35, align 8, !tbaa !105
  store double %36, ptr %7, align 8, !tbaa !15
  call void @llvm.lifetime.start.p0(i64 4, ptr %8) #16
  store i32 0, ptr %8, align 4, !tbaa !11
  call void @llvm.lifetime.start.p0(i64 4, ptr %9) #16
  store i32 0, ptr %9, align 4, !tbaa !11
  call void @llvm.lifetime.start.p0(i64 4, ptr %10) #16
  store i32 0, ptr %10, align 4, !tbaa !11
  br label %37

37:                                               ; preds = %162, %33
  %38 = load i32, ptr %10, align 4, !tbaa !11
  %39 = getelementptr inbounds i8, ptr %14, i64 8
  %40 = getelementptr inbounds nuw %"struct.faiss::SimulatedAnnealingParameters", ptr %39, i32 0, i32 2
  %41 = load i32, ptr %40, align 8, !tbaa !106
  %42 = icmp slt i32 %38, %41
  br i1 %42, label %44, label %43

43:                                               ; preds = %37
  call void @llvm.lifetime.end.p0(i64 4, ptr %10) #16
  br label %165

44:                                               ; preds = %37
  %45 = load double, ptr %7, align 8, !tbaa !15
  %46 = getelementptr inbounds i8, ptr %14, i64 8
  %47 = getelementptr inbounds nuw %"struct.faiss::SimulatedAnnealingParameters", ptr %46, i32 0, i32 1
  %48 = load double, ptr %47, align 8, !tbaa !107
  %49 = fmul double %45, %48
  store double %49, ptr %7, align 8, !tbaa !15
  call void @llvm.lifetime.start.p0(i64 4, ptr %11) #16
  call void @llvm.lifetime.start.p0(i64 4, ptr %12) #16
  %50 = getelementptr inbounds i8, ptr %14, i64 8
  %51 = getelementptr inbounds nuw %"struct.faiss::SimulatedAnnealingParameters", ptr %50, i32 0, i32 6
  %52 = load i8, ptr %51, align 8, !tbaa !108, !range !96, !noundef !97
  %53 = trunc i8 %52 to i1
  br i1 %53, label %54, label %67

54:                                               ; preds = %44
  %55 = getelementptr inbounds nuw %"struct.faiss::SimulatedAnnealingOptimizer", ptr %14, i32 0, i32 5
  %56 = load ptr, ptr %55, align 8, !tbaa !74
  %57 = getelementptr inbounds nuw %"struct.faiss::SimulatedAnnealingOptimizer", ptr %14, i32 0, i32 3
  %58 = load i32, ptr %57, align 8, !tbaa !71
  %59 = call noundef i32 @_ZN5faiss15RandomGenerator8rand_intEi(ptr noundef nonnull align 8 dereferenceable(5000) %56, i32 noundef %58)
  store i32 %59, ptr %11, align 4, !tbaa !11
  %60 = load i32, ptr %11, align 4, !tbaa !11
  %61 = getelementptr inbounds nuw %"struct.faiss::SimulatedAnnealingOptimizer", ptr %14, i32 0, i32 5
  %62 = load ptr, ptr %61, align 8, !tbaa !74
  %63 = load i32, ptr %6, align 4, !tbaa !11
  %64 = call noundef i32 @_ZN5faiss15RandomGenerator8rand_intEi(ptr noundef nonnull align 8 dereferenceable(5000) %62, i32 noundef %63)
  %65 = shl i32 1, %64
  %66 = xor i32 %60, %65
  store i32 %66, ptr %12, align 4, !tbaa !11
  br label %86

67:                                               ; preds = %44
  %68 = getelementptr inbounds nuw %"struct.faiss::SimulatedAnnealingOptimizer", ptr %14, i32 0, i32 5
  %69 = load ptr, ptr %68, align 8, !tbaa !74
  %70 = getelementptr inbounds nuw %"struct.faiss::SimulatedAnnealingOptimizer", ptr %14, i32 0, i32 3
  %71 = load i32, ptr %70, align 8, !tbaa !71
  %72 = call noundef i32 @_ZN5faiss15RandomGenerator8rand_intEi(ptr noundef nonnull align 8 dereferenceable(5000) %69, i32 noundef %71)
  store i32 %72, ptr %11, align 4, !tbaa !11
  %73 = getelementptr inbounds nuw %"struct.faiss::SimulatedAnnealingOptimizer", ptr %14, i32 0, i32 5
  %74 = load ptr, ptr %73, align 8, !tbaa !74
  %75 = getelementptr inbounds nuw %"struct.faiss::SimulatedAnnealingOptimizer", ptr %14, i32 0, i32 3
  %76 = load i32, ptr %75, align 8, !tbaa !71
  %77 = sub nsw i32 %76, 1
  %78 = call noundef i32 @_ZN5faiss15RandomGenerator8rand_intEi(ptr noundef nonnull align 8 dereferenceable(5000) %74, i32 noundef %77)
  store i32 %78, ptr %12, align 4, !tbaa !11
  %79 = load i32, ptr %12, align 4, !tbaa !11
  %80 = load i32, ptr %11, align 4, !tbaa !11
  %81 = icmp eq i32 %79, %80
  br i1 %81, label %82, label %85

82:                                               ; preds = %67
  %83 = load i32, ptr %12, align 4, !tbaa !11
  %84 = add nsw i32 %83, 1
  store i32 %84, ptr %12, align 4, !tbaa !11
  br label %85

85:                                               ; preds = %82, %67
  br label %86

86:                                               ; preds = %85, %54
  call void @llvm.lifetime.start.p0(i64 8, ptr %13) #16
  %87 = getelementptr inbounds nuw %"struct.faiss::SimulatedAnnealingOptimizer", ptr %14, i32 0, i32 2
  %88 = load ptr, ptr %87, align 8, !tbaa !66
  %89 = load ptr, ptr %4, align 8, !tbaa !9
  %90 = load i32, ptr %11, align 4, !tbaa !11
  %91 = load i32, ptr %12, align 4, !tbaa !11
  %92 = load ptr, ptr %88, align 8, !tbaa !13
  %93 = getelementptr inbounds ptr, ptr %92, i64 1
  %94 = load ptr, ptr %93, align 8
  %95 = call noundef double %94(ptr noundef nonnull align 8 dereferenceable(12) %88, ptr noundef %89, i32 noundef %90, i32 noundef %91)
  store double %95, ptr %13, align 8, !tbaa !15
  %96 = load double, ptr %13, align 8, !tbaa !15
  %97 = fcmp olt double %96, 0.000000e+00
  br i1 %97, label %105, label %98

98:                                               ; preds = %86
  %99 = getelementptr inbounds nuw %"struct.faiss::SimulatedAnnealingOptimizer", ptr %14, i32 0, i32 5
  %100 = load ptr, ptr %99, align 8, !tbaa !74
  %101 = call noundef float @_ZN5faiss15RandomGenerator10rand_floatEv(ptr noundef nonnull align 8 dereferenceable(5000) %100)
  %102 = fpext float %101 to double
  %103 = load double, ptr %7, align 8, !tbaa !15
  %104 = fcmp olt double %102, %103
  br i1 %104, label %105, label %125

105:                                              ; preds = %98, %86
  %106 = load ptr, ptr %4, align 8, !tbaa !9
  %107 = load i32, ptr %11, align 4, !tbaa !11
  %108 = sext i32 %107 to i64
  %109 = getelementptr inbounds i32, ptr %106, i64 %108
  %110 = load ptr, ptr %4, align 8, !tbaa !9
  %111 = load i32, ptr %12, align 4, !tbaa !11
  %112 = sext i32 %111 to i64
  %113 = getelementptr inbounds i32, ptr %110, i64 %112
  call void @_ZSt4swapIiENSt9enable_ifIXsr6__and_ISt6__not_ISt15__is_tuple_likeIT_EESt21is_move_constructibleIS3_ESt18is_move_assignableIS3_EEE5valueEvE4typeERS3_SC_(ptr noundef nonnull align 4 dereferenceable(4) %109, ptr noundef nonnull align 4 dereferenceable(4) %113) #16
  %114 = load double, ptr %13, align 8, !tbaa !15
  %115 = load double, ptr %5, align 8, !tbaa !15
  %116 = fadd double %115, %114
  store double %116, ptr %5, align 8, !tbaa !15
  %117 = load i32, ptr %8, align 4, !tbaa !11
  %118 = add nsw i32 %117, 1
  store i32 %118, ptr %8, align 4, !tbaa !11
  %119 = load double, ptr %13, align 8, !tbaa !15
  %120 = fcmp oge double %119, 0.000000e+00
  br i1 %120, label %121, label %124

121:                                              ; preds = %105
  %122 = load i32, ptr %9, align 4, !tbaa !11
  %123 = add nsw i32 %122, 1
  store i32 %123, ptr %9, align 4, !tbaa !11
  br label %124

124:                                              ; preds = %121, %105
  br label %125

125:                                              ; preds = %124, %98
  %126 = getelementptr inbounds i8, ptr %14, i64 8
  %127 = getelementptr inbounds nuw %"struct.faiss::SimulatedAnnealingParameters", ptr %126, i32 0, i32 5
  %128 = load i32, ptr %127, align 4, !tbaa !101
  %129 = icmp sgt i32 %128, 2
  br i1 %129, label %139, label %130

130:                                              ; preds = %125
  %131 = getelementptr inbounds i8, ptr %14, i64 8
  %132 = getelementptr inbounds nuw %"struct.faiss::SimulatedAnnealingParameters", ptr %131, i32 0, i32 5
  %133 = load i32, ptr %132, align 4, !tbaa !101
  %134 = icmp sgt i32 %133, 1
  br i1 %134, label %135, label %148

135:                                              ; preds = %130
  %136 = load i32, ptr %10, align 4, !tbaa !11
  %137 = srem i32 %136, 10000
  %138 = icmp eq i32 %137, 0
  br i1 %138, label %139, label %148

139:                                              ; preds = %135, %125
  %140 = load i32, ptr %10, align 4, !tbaa !11
  %141 = load double, ptr %5, align 8, !tbaa !15
  %142 = load double, ptr %7, align 8, !tbaa !15
  %143 = load i32, ptr %8, align 4, !tbaa !11
  %144 = load i32, ptr %9, align 4, !tbaa !11
  %145 = call i32 (ptr, ...) @printf(ptr noundef @.str.8, i32 noundef %140, double noundef %141, double noundef %142, i32 noundef %143, i32 noundef %144)
  %146 = load ptr, ptr @stdout, align 8, !tbaa !109
  %147 = call i32 @fflush(ptr noundef %146)
  br label %148

148:                                              ; preds = %139, %135, %130
  %149 = getelementptr inbounds nuw %"struct.faiss::SimulatedAnnealingOptimizer", ptr %14, i32 0, i32 4
  %150 = load ptr, ptr %149, align 8, !tbaa !72
  %151 = icmp ne ptr %150, null
  br i1 %151, label %152, label %161

152:                                              ; preds = %148
  %153 = getelementptr inbounds nuw %"struct.faiss::SimulatedAnnealingOptimizer", ptr %14, i32 0, i32 4
  %154 = load ptr, ptr %153, align 8, !tbaa !72
  %155 = load i32, ptr %10, align 4, !tbaa !11
  %156 = load double, ptr %5, align 8, !tbaa !15
  %157 = load double, ptr %7, align 8, !tbaa !15
  %158 = load i32, ptr %8, align 4, !tbaa !11
  %159 = load i32, ptr %9, align 4, !tbaa !11
  %160 = call i32 (ptr, ptr, ...) @fprintf(ptr noundef %154, ptr noundef @.str.9, i32 noundef %155, double noundef %156, double noundef %157, i32 noundef %158, i32 noundef %159) #16
  br label %161

161:                                              ; preds = %152, %148
  call void @llvm.lifetime.end.p0(i64 8, ptr %13) #16
  call void @llvm.lifetime.end.p0(i64 4, ptr %12) #16
  call void @llvm.lifetime.end.p0(i64 4, ptr %11) #16
  br label %162

162:                                              ; preds = %161
  %163 = load i32, ptr %10, align 4, !tbaa !11
  %164 = add nsw i32 %163, 1
  store i32 %164, ptr %10, align 4, !tbaa !11
  br label %37, !llvm.loop !110

165:                                              ; preds = %43
  %166 = getelementptr inbounds i8, ptr %14, i64 8
  %167 = getelementptr inbounds nuw %"struct.faiss::SimulatedAnnealingParameters", ptr %166, i32 0, i32 5
  %168 = load i32, ptr %167, align 4, !tbaa !101
  %169 = icmp sgt i32 %168, 1
  br i1 %169, label %170, label %172

170:                                              ; preds = %165
  %171 = call i32 (ptr, ...) @printf(ptr noundef @.str.4)
  br label %172

172:                                              ; preds = %170, %165
  %173 = load double, ptr %5, align 8, !tbaa !15
  call void @llvm.lifetime.end.p0(i64 4, ptr %9) #16
  call void @llvm.lifetime.end.p0(i64 4, ptr %8) #16
  call void @llvm.lifetime.end.p0(i64 8, ptr %7) #16
  call void @llvm.lifetime.end.p0(i64 4, ptr %6) #16
  call void @llvm.lifetime.end.p0(i64 8, ptr %5) #16
  ret double %173
}