; Function Attrs: mustprogress uwtable
define noundef double @_ZN5faiss27SimulatedAnnealingOptimizer8optimizeEPi(ptr noundef nonnull align 8 captures(none) dereferenceable(88) initializes((80, 88)) %0, ptr noundef %1) local_unnamed_addr #0 align 2 {
  %3 = getelementptr inbounds nuw i8, ptr %0, i64 48
  %4 = load ptr, ptr %3, align 8, !tbaa !28
  %5 = load ptr, ptr %4, align 8, !tbaa !4
  %6 = load ptr, ptr %5, align 8
  %7 = tail call noundef double %6(ptr noundef nonnull align 8 dereferenceable(12) %4, ptr noundef %1)
  %8 = getelementptr inbounds nuw i8, ptr %0, i64 80
  store double %7, ptr %8, align 8, !tbaa !54
  %9 = getelementptr inbounds nuw i8, ptr %0, i64 56
  %10 = load i32, ptr %9, align 8, !tbaa !34
  br label %11

11:                                               ; preds = %11, %2
  %.045 = phi i32 [ 0, %2 ], [ %13, %11 ]
  %12 = shl nuw i32 1, %.045
  %.not = icmp sgt i32 %10, %12
  %13 = add nuw nsw i32 %.045, 1
  br i1 %.not, label %11, label %14, !llvm.loop !55

14:                                               ; preds = %11
  %15 = getelementptr inbounds nuw i8, ptr %0, i64 24
  %16 = load i32, ptr %15, align 8, !tbaa !56
  %17 = icmp sgt i32 %16, 0
  br i1 %17, label %.lr.ph, label %._crit_edge

.lr.ph:                                           ; preds = %14
  %18 = getelementptr inbounds nuw i8, ptr %0, i64 8
  %19 = load double, ptr %18, align 8, !tbaa !57
  %20 = getelementptr inbounds nuw i8, ptr %0, i64 16
  %21 = getelementptr inbounds nuw i8, ptr %0, i64 40
  %22 = getelementptr inbounds nuw i8, ptr %0, i64 72
  %23 = getelementptr inbounds nuw i8, ptr %0, i64 36
  %24 = getelementptr inbounds nuw i8, ptr %0, i64 64
  br label %28

._crit_edge:                                      ; preds = %86, %14
  %.0.lcssa = phi double [ %7, %14 ], [ %.1, %86 ]
  %25 = getelementptr inbounds nuw i8, ptr %0, i64 36
  %26 = load i32, ptr %25, align 4, !tbaa !52
  %27 = icmp sgt i32 %26, 1
  br i1 %27, label %90, label %91

28:                                               ; preds = %.lr.ph, %86
  %.058 = phi double [ %7, %.lr.ph ], [ %.1, %86 ]
  %.03957 = phi i32 [ 0, %.lr.ph ], [ %87, %86 ]
  %.04056 = phi i32 [ 0, %.lr.ph ], [ %.141, %86 ]
  %.04255 = phi i32 [ 0, %.lr.ph ], [ %.143, %86 ]
  %.04454 = phi double [ %19, %.lr.ph ], [ %30, %86 ]
  %29 = load double, ptr %20, align 8, !tbaa !58
  %30 = fmul double %.04454, %29
  %31 = load i8, ptr %21, align 8, !tbaa !59, !range !48, !noundef !49
  %32 = trunc nuw i8 %31 to i1
  %33 = load ptr, ptr %22, align 8, !tbaa !37
  %34 = load i32, ptr %9, align 8, !tbaa !34
  %35 = tail call noundef i32 @_ZN5faiss15RandomGenerator8rand_intEi(ptr noundef nonnull align 8 dereferenceable(5000) %33, i32 noundef %34)
  %36 = load ptr, ptr %22, align 8, !tbaa !37
  br i1 %32, label %37, label %41

37:                                               ; preds = %28
  %38 = tail call noundef i32 @_ZN5faiss15RandomGenerator8rand_intEi(ptr noundef nonnull align 8 dereferenceable(5000) %36, i32 noundef %.045)
  %39 = shl nuw i32 1, %38
  %40 = xor i32 %39, %35
  br label %47

41:                                               ; preds = %28
  %42 = load i32, ptr %9, align 8, !tbaa !34
  %43 = add nsw i32 %42, -1
  %44 = tail call noundef i32 @_ZN5faiss15RandomGenerator8rand_intEi(ptr noundef nonnull align 8 dereferenceable(5000) %36, i32 noundef %43)
  %45 = icmp eq i32 %44, %35
  %46 = zext i1 %45 to i32
  %spec.select = add nsw i32 %44, %46
  br label %47

47:                                               ; preds = %41, %37
  %.037 = phi i32 [ %40, %37 ], [ %spec.select, %41 ]
  %48 = load ptr, ptr %3, align 8, !tbaa !28
  %49 = load ptr, ptr %48, align 8, !tbaa !4
  %50 = getelementptr inbounds nuw i8, ptr %49, i64 8
  %51 = load ptr, ptr %50, align 8
  %52 = tail call noundef double %51(ptr noundef nonnull align 8 dereferenceable(12) %48, ptr noundef %1, i32 noundef %35, i32 noundef %.037)
  %53 = fcmp olt double %52, 0.000000e+00
  br i1 %53, label %59, label %54

54:                                               ; preds = %47
  %55 = load ptr, ptr %22, align 8, !tbaa !37
  %56 = tail call noundef float @_ZN5faiss15RandomGenerator10rand_floatEv(ptr noundef nonnull align 8 dereferenceable(5000) %55)
  %57 = fpext float %56 to double
  %58 = fcmp ogt double %30, %57
  br i1 %58, label %59, label %71

59:                                               ; preds = %54, %47
  %60 = sext i32 %35 to i64
  %61 = getelementptr inbounds i32, ptr %1, i64 %60
  %62 = sext i32 %.037 to i64
  %63 = getelementptr inbounds i32, ptr %1, i64 %62
  %64 = load i32, ptr %61, align 4, !tbaa !11
  %65 = load i32, ptr %63, align 4, !tbaa !11
  store i32 %65, ptr %61, align 4, !tbaa !11
  store i32 %64, ptr %63, align 4, !tbaa !11
  %66 = fadd double %.058, %52
  %67 = add nsw i32 %.04255, 1
  %68 = fcmp ult double %52, 0.000000e+00
  br i1 %68, label %71, label %69

69:                                               ; preds = %59
  %70 = add nsw i32 %.04056, 1
  br label %71

71:                                               ; preds = %59, %69, %54
  %.143 = phi i32 [ %67, %69 ], [ %67, %59 ], [ %.04255, %54 ]
  %.141 = phi i32 [ %70, %69 ], [ %.04056, %59 ], [ %.04056, %54 ]
  %.1 = phi double [ %66, %69 ], [ %66, %59 ], [ %.058, %54 ]
  %72 = load i32, ptr %23, align 4, !tbaa !52
  %73 = icmp sgt i32 %72, 2
  br i1 %73, label %78, label %74

74:                                               ; preds = %71
  %75 = icmp eq i32 %72, 2
  %76 = urem i32 %.03957, 10000
  %77 = icmp eq i32 %76, 0
  %or.cond = and i1 %77, %75
  br i1 %or.cond, label %78, label %82

78:                                               ; preds = %74, %71
  %79 = tail call i32 (ptr, ...) @printf(ptr noundef nonnull dereferenceable(1) @.str.8, i32 noundef %.03957, double noundef %.1, double noundef %30, i32 noundef %.143, i32 noundef %.141)
  %80 = load ptr, ptr @stdout, align 8, !tbaa !60
  %81 = tail call i32 @fflush(ptr noundef %80)
  br label %82

82:                                               ; preds = %78, %74
  %83 = load ptr, ptr %24, align 8, !tbaa !35
  %.not52 = icmp eq ptr %83, null
  br i1 %.not52, label %86, label %84

84:                                               ; preds = %82
  %85 = tail call i32 (ptr, ptr, ...) @fprintf(ptr noundef nonnull %83, ptr noundef nonnull @.str.9, i32 noundef %.03957, double noundef %.1, double noundef %30, i32 noundef %.143, i32 noundef %.141) #21
  br label %86

86:                                               ; preds = %84, %82
  %87 = add nuw nsw i32 %.03957, 1
  %88 = load i32, ptr %15, align 8, !tbaa !56
  %89 = icmp slt i32 %87, %88
  br i1 %89, label %28, label %._crit_edge, !llvm.loop !61

90:                                               ; preds = %._crit_edge
  %putchar = tail call i32 @putchar(i32 10)
  br label %91

91:                                               ; preds = %90, %._crit_edge
  ret double %.0.lcssa
}